; ModuleID = 'source-C-CXX/43/416.c'
source_filename = "source-C-CXX/43/416.c"
target datalayout = "e-m:e-p270:32:32-p271:32:32-p272:64:64-i64:64-f80:128-n8:16:32:64-S128"
target triple = "x86_64-pc-linux-gnu"

@.str = private unnamed_addr constant [3 x i8] c"%d\00", align 1
@.str.1 = private unnamed_addr constant [4 x i8] c"%d\0A\00", align 1

; Function Attrs: nofree nosync nounwind readnone sspstrong uwtable
define dso_local i32 @re(i32 %0) local_unnamed_addr #0 {
  %2 = icmp eq i32 %0, 0
  br i1 %2, label %9, label %3

3:                                                ; preds = %1
  %4 = tail call i32 @llvm.abs.i32(i32 %0, i1 true)
  br label %5

5:                                                ; preds = %3, %5
  %6 = phi i32 [ %4, %3 ], [ %7, %5 ]
  %7 = udiv i32 %6, 10
  %8 = icmp ult i32 %6, 10
  br i1 %8, label %9, label %5, !llvm.loop !5

9:                                                ; preds = %5, %1
  ret i32 undef
}

; Function Attrs: argmemonly mustprogress nofree nosync nounwind willreturn
declare void @llvm.lifetime.start.p0i8(i64 immarg, i8* nocapture) #1

; Function Attrs: argmemonly mustprogress nofree nosync nounwind willreturn
declare void @llvm.lifetime.end.p0i8(i64 immarg, i8* nocapture) #1

; Function Attrs: nofree nounwind sspstrong uwtable
define dso_local i32 @main() local_unnamed_addr #2 {
  %1 = alloca [6 x i32], align 16
  %2 = alloca i32, align 4
  %3 = bitcast [6 x i32]* %1 to i8*
  call void @llvm.lifetime.start.p0i8(i64 24, i8* nonnull %3) #5
  %4 = bitcast i32* %2 to i8*
  call void @llvm.lifetime.start.p0i8(i64 4, i8* nonnull %4) #5
  store i32 0, i32* %2, align 4, !tbaa !7
  %5 = getelementptr inbounds [6 x i32], [6 x i32]* %1, i64 0, i64 0
  %6 = call i32 (i8*, ...) @__isoc99_scanf(i8* getelementptr inbounds ([3 x i8], [3 x i8]* @.str, i64 0, i64 0), i32* nonnull %5)
  store i32 1, i32* %2, align 4, !tbaa !7
  %7 = getelementptr inbounds [6 x i32], [6 x i32]* %1, i64 0, i64 1
  %8 = call i32 (i8*, ...) @__isoc99_scanf(i8* getelementptr inbounds ([3 x i8], [3 x i8]* @.str, i64 0, i64 0), i32* nonnull %7)
  store i32 2, i32* %2, align 4, !tbaa !7
  %9 = getelementptr inbounds [6 x i32], [6 x i32]* %1, i64 0, i64 2
  %10 = call i32 (i8*, ...) @__isoc99_scanf(i8* getelementptr inbounds ([3 x i8], [3 x i8]* @.str, i64 0, i64 0), i32* nonnull %9)
  store i32 3, i32* %2, align 4, !tbaa !7
  %11 = getelementptr inbounds [6 x i32], [6 x i32]* %1, i64 0, i64 3
  %12 = call i32 (i8*, ...) @__isoc99_scanf(i8* getelementptr inbounds ([3 x i8], [3 x i8]* @.str, i64 0, i64 0), i32* nonnull %11)
  store i32 4, i32* %2, align 4, !tbaa !7
  %13 = getelementptr inbounds [6 x i32], [6 x i32]* %1, i64 0, i64 4
  %14 = call i32 (i8*, ...) @__isoc99_scanf(i8* getelementptr inbounds ([3 x i8], [3 x i8]* @.str, i64 0, i64 0), i32* nonnull %13)
  store i32 5, i32* %2, align 4, !tbaa !7
  %15 = getelementptr inbounds [6 x i32], [6 x i32]* %1, i64 0, i64 5
  %16 = call i32 (i8*, ...) @__isoc99_scanf(i8* getelementptr inbounds ([3 x i8], [3 x i8]* @.str, i64 0, i64 0), i32* nonnull %15)
  store i32 0, i32* %2, align 4, !tbaa !7
  %17 = getelementptr inbounds [6 x i32], [6 x i32]* %1, i64 0, i64 0
  %18 = load i32, i32* %17, align 16, !tbaa !7
  %19 = call i32 (i8*, ...) @printf(i8* nonnull dereferenceable(1) getelementptr inbounds ([4 x i8], [4 x i8]* @.str.1, i64 0, i64 0), i32 %18)
  store i32 1, i32* %2, align 4, !tbaa !7
  %20 = getelementptr inbounds [6 x i32], [6 x i32]* %1, i64 0, i64 1
  %21 = load i32, i32* %20, align 4, !tbaa !7
  %22 = call i32 (i8*, ...) @printf(i8* nonnull dereferenceable(1) getelementptr inbounds ([4 x i8], [4 x i8]* @.str.1, i64 0, i64 0), i32 %21)
  store i32 2, i32* %2, align 4, !tbaa !7
  %23 = getelementptr inbounds [6 x i32], [6 x i32]* %1, i64 0, i64 2
  %24 = load i32, i32* %23, align 8, !tbaa !7
  %25 = call i32 (i8*, ...) @printf(i8* nonnull dereferenceable(1) getelementptr inbounds ([4 x i8], [4 x i8]* @.str.1, i64 0, i64 0), i32 %24)
  store i32 3, i32* %2, align 4, !tbaa !7
  %26 = getelementptr inbounds [6 x i32], [6 x i32]* %1, i64 0, i64 3
  %27 = load i32, i32* %26, align 4, !tbaa !7
  %28 = call i32 (i8*, ...) @printf(i8* nonnull dereferenceable(1) getelementptr inbounds ([4 x i8], [4 x i8]* @.str.1, i64 0, i64 0), i32 %27)
  store i32 4, i32* %2, align 4, !tbaa !7
  %29 = getelementptr inbounds [6 x i32], [6 x i32]* %1, i64 0, i64 4
  %30 = load i32, i32* %29, align 16, !tbaa !7
  %31 = call i32 (i8*, ...) @printf(i8* nonnull dereferenceable(1) getelementptr inbounds ([4 x i8], [4 x i8]* @.str.1, i64 0, i64 0), i32 %30)
  store i32 5, i32* %2, align 4, !tbaa !7
  %32 = getelementptr inbounds [6 x i32], [6 x i32]* %1, i64 0, i64 5
  %33 = load i32, i32* %32, align 4, !tbaa !7
  %34 = call i32 (i8*, ...) @printf(i8* nonnull dereferenceable(1) getelementptr inbounds ([3 x i8], [3 x i8]* @.str, i64 0, i64 0), i32 %33)
  store i32 6, i32* %2, align 4, !tbaa !7
  %35 = call i32 (i8*, ...) @__isoc99_scanf(i8* getelementptr inbounds ([3 x i8], [3 x i8]* @.str, i64 0, i64 0), i32* nonnull %2)
  call void @llvm.lifetime.end.p0i8(i64 4, i8* nonnull %4) #5
  call void @llvm.lifetime.end.p0i8(i64 24, i8* nonnull %3) #5
  ret i32 0
}

; Function Attrs: nofree nounwind
declare noundef i32 @__isoc99_scanf(i8* nocapture noundef readonly, ...) local_unnamed_addr #3

; Function Attrs: nofree nounwind
declare noundef i32 @printf(i8* nocapture noundef readonly, ...) local_unnamed_addr #3

; Function Attrs: nofree nosync nounwind readnone speculatable willreturn
declare i32 @llvm.abs.i32(i32, i1 immarg) #4


!llvm.module.flags = !{!0, !1, !2, !3}
!llvm.ident = !{!4}

!0 = !{i32 1, !"wchar_size", i32 4}
!1 = !{i32 7, !"PIC Level", i32 2}
!2 = !{i32 7, !"PIE Level", i32 2}
!3 = !{i32 7, !"uwtable", i32 1}
!4 = !{!"clang version 13.0.0"}
!5 = distinct !{!5, !6}
!6 = !{!"llvm.loop.mustprogress"}
!7 = !{!8, !8, i64 0}
!8 = !{!"int", !9, i64 0}
!9 = !{!"omnipotent char", !10, i64 0}
!10 = !{!"Simple C/C++ TBAA"}
